target datalayout = "e-m:e-p270:32:32-p271:32:32-p272:64:64-i64:64-i128:128-f80:128-n8:16:32:64-S128"
target triple = "x86_64-pc-linux-gnu"

%struct.TuplesortPublic = type { ptr, ptr, ptr, ptr, ptr, ptr, ptr, ptr, ptr, i8, i32, ptr, ptr, i32, i8, ptr }
%struct.SortTuple = type { ptr, i64, i8, i32 }
%struct.BrinSortTuple = type { i64, %struct.BrinTuple }
%struct.BrinTuple = type { i32, i8 }

; Function Attrs: nounwind uwtable
define internal void @writetup_index_brin(ptr noundef %0, ptr noundef %1, ptr noundef %2) #0 {
  %4 = alloca ptr, align 8
  %5 = alloca ptr, align 8
  %6 = alloca ptr, align 8
  %7 = alloca ptr, align 8
  %8 = alloca ptr, align 8
  %9 = alloca i32, align 4
  store ptr %0, ptr %4, align 8
  store ptr %1, ptr %5, align 8
  store ptr %2, ptr %6, align 8
  call void @llvm.lifetime.start.p0(i64 8, ptr %7) #6
  %10 = load ptr, ptr %4, align 8
  store ptr %10, ptr %7, align 8
  call void @llvm.lifetime.start.p0(i64 8, ptr %8) #6
  %11 = load ptr, ptr %6, align 8
  %12 = getelementptr inbounds nuw %struct.SortTuple, ptr %11, i32 0, i32 0
  %13 = load ptr, ptr %12, align 8
  store ptr %13, ptr %8, align 8
  call void @llvm.lifetime.start.p0(i64 4, ptr %9) #6
  %14 = load ptr, ptr %8, align 8
  %15 = getelementptr inbounds nuw %struct.BrinSortTuple, ptr %14, i32 0, i32 0
  %16 = load i64, ptr %15, align 8
  %17 = trunc i64 %16 to i32
  store i32 %17, ptr %9, align 4
  %18 = load i32, ptr %9, align 4
  %19 = zext i32 %18 to i64
  %20 = add i64 %19, 4
  %21 = trunc i64 %20 to i32
  store i32 %21, ptr %9, align 4
  %22 = load ptr, ptr %5, align 8
  call void @LogicalTapeWrite(ptr noundef %22, ptr noundef %9, i64 noundef 4)
  %23 = load ptr, ptr %5, align 8
  %24 = load ptr, ptr %8, align 8
  %25 = getelementptr inbounds nuw %struct.BrinSortTuple, ptr %24, i32 0, i32 1
  %26 = load ptr, ptr %8, align 8
  %27 = getelementptr inbounds nuw %struct.BrinSortTuple, ptr %26, i32 0, i32 0
  %28 = load i64, ptr %27, align 8
  call void @LogicalTapeWrite(ptr noundef %23, ptr noundef %25, i64 noundef %28)
  %29 = load ptr, ptr %7, align 8
  %30 = getelementptr inbounds nuw %struct.TuplesortPublic, ptr %29, i32 0, i32 13
  %31 = load i32, ptr %30, align 8
  %32 = and i32 %31, 1
  %33 = icmp ne i32 %32, 0
  br i1 %33, label %34, label %36

34:                                               ; preds = %3
  %35 = load ptr, ptr %5, align 8
  call void @LogicalTapeWrite(ptr noundef %35, ptr noundef %9, i64 noundef 4)
  br label %36

36:                                               ; preds = %34, %3
  call void @llvm.lifetime.end.p0(i64 4, ptr %9) #6
  call void @llvm.lifetime.end.p0(i64 8, ptr %8) #6
  call void @llvm.lifetime.end.p0(i64 8, ptr %7) #6
  ret void
}